target datalayout = "e-m:e-p270:32:32-p271:32:32-p272:64:64-i64:64-i128:128-f80:128-n8:16:32:64-S128"
target triple = "x86_64-pc-linux-gnu"

%class.rational = type { %class.mpq }
%class.mpq = type { %class.mpz, %class.mpz }
%class.mpz = type { i32, i8, ptr }
%class.svector.9 = type { %class.vector.10 }
%class.vector.10 = type { ptr }
%"class.dd::pdd_manager" = type { %class.svector, %class.vector.0, %class.ptr_hashtable, %class.hashtable, %class.hashtable.3, %class.map, %class.svector.9, ptr, %class.svector.9, %class.svector.9, %class.svector.9, %class.svector.9, %class.small_object_allocator, %class.svector.9, i32, %class.svector.9, %class.svector.9, %class.svector.11, i8, i8, i32, i32, %class.svector.9, %class.svector.9, %class.rational, %class.rational, i32, %class.rational, %class.svector.9, i32, %class.svector.9, %class.svector.9, %class.rational, %class.rational }
%class.svector = type { %class.vector }
%class.vector = type { ptr }
%class.vector.0 = type { ptr }
%class.ptr_hashtable = type { %class.core_hashtable.base, [4 x i8] }
%class.core_hashtable.base = type <{ ptr, i32, i32, i32 }>
%class.hashtable = type { %class.core_hashtable.base.2, [4 x i8] }
%class.core_hashtable.base.2 = type <{ ptr, i32, i32, i32 }>
%class.hashtable.3 = type { %class.core_hashtable.base.5, [4 x i8] }
%class.core_hashtable.base.5 = type <{ ptr, i32, i32, i32 }>
%class.map = type { %class.table2map }
%class.table2map = type { %class.core_hashtable.7 }
%class.core_hashtable.7 = type <{ ptr, i32, i32, i32, [4 x i8] }>
%class.small_object_allocator = type { [32 x ptr], [32 x ptr], i64 }
%class.svector.11 = type { %class.vector.12 }
%class.vector.12 = type { ptr }

; Function Attrs: mustprogress nounwind uwtable
define linkonce_odr hidden noundef i32 @_ZNK6vectorIjLb0EjE4sizeEv(ptr noundef nonnull align 8 dereferenceable(8) %0) #5 comdat align 2 {
  %2 = alloca i32, align 4
  %3 = alloca ptr, align 8
  store ptr %0, ptr %3, align 8, !tbaa !91
  %4 = load ptr, ptr %3, align 8
  %5 = getelementptr inbounds nuw %class.vector.10, ptr %4, i32 0, i32 0
  %6 = load ptr, ptr %5, align 8, !tbaa !94
  %7 = icmp eq ptr %6, null
  br i1 %7, label %8, label %9

8:                                                ; preds = %1
  store i32 0, ptr %2, align 4
  br label %14

9:                                                ; preds = %1
  %10 = getelementptr inbounds nuw %class.vector.10, ptr %4, i32 0, i32 0
  %11 = load ptr, ptr %10, align 8, !tbaa !94
  %12 = getelementptr inbounds i32, ptr %11, i64 -1
  %13 = load i32, ptr %12, align 4, !tbaa !8
  store i32 %13, ptr %2, align 4
  br label %14

14:                                               ; preds = %9, %8
  %15 = load i32, ptr %2, align 4
  ret i32 %15
}

; Function Attrs: mustprogress uwtable
define hidden void @_ZN2dd11pdd_manager17set_max_num_nodesEj(ptr noundef nonnull align 8 dereferenceable(952) %0, i32 noundef %1) #4 align 2 {
  %3 = alloca ptr, align 8
  %4 = alloca i32, align 4
  store ptr %0, ptr %3, align 8, !tbaa !3
  store i32 %1, ptr %4, align 4, !tbaa !8
  %5 = load ptr, ptr %3, align 8
  %6 = load i32, ptr %4, align 4, !tbaa !8
  %7 = getelementptr inbounds nuw %"class.dd::pdd_manager", ptr %5, i32 0, i32 10
  %8 = call noundef i32 @_ZNK6vectorIjLb0EjE4sizeEv(ptr noundef nonnull align 8 dereferenceable(8) %7)
  %9 = add i32 %6, %8
  %10 = getelementptr inbounds nuw %"class.dd::pdd_manager", ptr %5, i32 0, i32 20
  store i32 %9, ptr %10, align 4, !tbaa !47
  ret void
}