; Function Attrs: mustprogress nofree norecurse nosync nounwind willreturn memory(read, argmem: readwrite, inaccessiblemem: none) uwtable
define hidden void @_ZN2dd11pdd_manager17set_max_num_nodesEj(ptr noundef nonnull align 8 captures(none) dereferenceable(952) initializes((724, 728)) %0, i32 noundef %1) local_unnamed_addr #9 align 2 {
  %3 = getelementptr inbounds nuw i8, ptr %0, i64 144
  %4 = load ptr, ptr %3, align 8, !tbaa !53
  %5 = icmp eq ptr %4, null
  br i1 %5, label %_ZNK6vectorIjLb0EjE4sizeEv.exit, label %6

6:                                                ; preds = %2
  %7 = getelementptr inbounds i8, ptr %4, i64 -4
  %8 = load i32, ptr %7, align 4, !tbaa !83
  br label %_ZNK6vectorIjLb0EjE4sizeEv.exit

_ZNK6vectorIjLb0EjE4sizeEv.exit:                  ; preds = %2, %6
  %.0.i = phi i32 [ %8, %6 ], [ 0, %2 ]
  %9 = add i32 %.0.i, %1
  %10 = getelementptr inbounds nuw i8, ptr %0, i64 724
  store i32 %9, ptr %10, align 4, !tbaa !77
  ret void
}